target datalayout = "e-m:e-p270:32:32-p271:32:32-p272:64:64-i64:64-i128:128-f80:128-n8:16:32:64-S128"
target triple = "x86_64-pc-linux-gnu"

%struct.__sigset_t = type { [16 x i64] }
%"class.llvm::CrashRecoveryContext" = type <{ ptr, ptr, i32, i8, [3 x i8] }>
%"class.llvm::CrashRecoveryContextCleanup" = type { ptr, ptr, i8, ptr, ptr }
%"struct.(anonymous namespace)::CrashRecoveryContextImpl" = type <{ ptr, ptr, [1 x %struct.__jmp_buf_tag], i8, [7 x i8] }>
%struct.__jmp_buf_tag = type { [8 x i64], i32, %struct.__sigset_t }

@_ZN12_GLOBAL__N_121IsRecoveringFromCrashE = internal thread_local global ptr null, align 8
@_ZN12_GLOBAL__N_114CurrentContextE = internal thread_local global ptr null, align 8

; Function Attrs: mustprogress nounwind uwtable
define internal void @_ZN12_GLOBAL__N_124CrashRecoveryContextImplD2Ev(ptr noundef nonnull align 8 dereferenceable(217) %0) unnamed_addr #0 align 2 {
  %2 = alloca ptr, align 8
  store ptr %0, ptr %2, align 8
  %3 = load ptr, ptr %2, align 8
  %4 = getelementptr inbounds nuw %"struct.(anonymous namespace)::CrashRecoveryContextImpl", ptr %3, i32 0, i32 3
  %5 = load i8, ptr %4, align 8
  %6 = lshr i8 %5, 1
  %7 = and i8 %6, 1
  %8 = zext i8 %7 to i32
  %9 = icmp ne i32 %8, 0
  br i1 %9, label %14, label %10

10:                                               ; preds = %1
  %11 = getelementptr inbounds nuw %"struct.(anonymous namespace)::CrashRecoveryContextImpl", ptr %3, i32 0, i32 0
  %12 = load ptr, ptr %11, align 8
  %13 = call align 8 ptr @llvm.threadlocal.address.p0(ptr align 8 @_ZN12_GLOBAL__N_114CurrentContextE)
  store ptr %12, ptr %13, align 8
  br label %14

14:                                               ; preds = %10, %1
  ret void
}

; Function Attrs: mustprogress nounwind uwtable
define dso_local void @_ZN4llvm20CrashRecoveryContextD2Ev(ptr noundef nonnull align 8 dereferenceable(21) %0) unnamed_addr #0 align 2 {
  %2 = alloca ptr, align 8
  %3 = alloca ptr, align 8
  %4 = alloca ptr, align 8
  %5 = alloca ptr, align 8
  %6 = alloca ptr, align 8
  store ptr %0, ptr %2, align 8
  %7 = load ptr, ptr %2, align 8
  %8 = getelementptr inbounds nuw %"class.llvm::CrashRecoveryContext", ptr %7, i32 0, i32 1
  %9 = load ptr, ptr %8, align 8
  store ptr %9, ptr %3, align 8
  %10 = call align 8 ptr @llvm.threadlocal.address.p0(ptr align 8 @_ZN12_GLOBAL__N_121IsRecoveringFromCrashE)
  %11 = load ptr, ptr %10, align 8
  store ptr %11, ptr %4, align 8
  %12 = call align 8 ptr @llvm.threadlocal.address.p0(ptr align 8 @_ZN12_GLOBAL__N_121IsRecoveringFromCrashE)
  store ptr %7, ptr %12, align 8
  br label %13

13:                                               ; preds = %33, %1
  %14 = load ptr, ptr %3, align 8
  %15 = icmp ne ptr %14, null
  br i1 %15, label %16, label %34

16:                                               ; preds = %13
  %17 = load ptr, ptr %3, align 8
  store ptr %17, ptr %5, align 8
  %18 = load ptr, ptr %5, align 8
  %19 = getelementptr inbounds nuw %"class.llvm::CrashRecoveryContextCleanup", ptr %18, i32 0, i32 4
  %20 = load ptr, ptr %19, align 8
  store ptr %20, ptr %3, align 8
  %21 = load ptr, ptr %5, align 8
  %22 = getelementptr inbounds nuw %"class.llvm::CrashRecoveryContextCleanup", ptr %21, i32 0, i32 2
  store i8 1, ptr %22, align 8
  %23 = load ptr, ptr %5, align 8
  %24 = load ptr, ptr %23, align 8
  %25 = getelementptr inbounds ptr, ptr %24, i64 2
  %26 = load ptr, ptr %25, align 8
  call void %26(ptr noundef nonnull align 8 dereferenceable(40) %23)
  %27 = load ptr, ptr %5, align 8
  %28 = icmp eq ptr %27, null
  br i1 %28, label %33, label %29

29:                                               ; preds = %16
  %30 = load ptr, ptr %27, align 8
  %31 = getelementptr inbounds ptr, ptr %30, i64 1
  %32 = load ptr, ptr %31, align 8
  call void %32(ptr noundef nonnull align 8 dereferenceable(40) %27) #13
  br label %33

33:                                               ; preds = %29, %16
  br label %13, !llvm.loop !4

34:                                               ; preds = %13
  %35 = load ptr, ptr %4, align 8
  %36 = call align 8 ptr @llvm.threadlocal.address.p0(ptr align 8 @_ZN12_GLOBAL__N_121IsRecoveringFromCrashE)
  store ptr %35, ptr %36, align 8
  %37 = getelementptr inbounds nuw %"class.llvm::CrashRecoveryContext", ptr %7, i32 0, i32 0
  %38 = load ptr, ptr %37, align 8
  store ptr %38, ptr %6, align 8
  %39 = load ptr, ptr %6, align 8
  %40 = icmp eq ptr %39, null
  br i1 %40, label %42, label %41

41:                                               ; preds = %34
  call void @_ZN12_GLOBAL__N_124CrashRecoveryContextImplD2Ev(ptr noundef nonnull align 8 dereferenceable(217) %39) #13
  call void @_ZdlPvm(ptr noundef %39, i64 noundef 224) #14
  br label %42

42:                                               ; preds = %41, %34
  ret void
}