; Function Attrs: mustprogress nounwind uwtable
define dso_local void @_ZN4llvm20CrashRecoveryContextD2Ev(ptr noundef nonnull align 8 dereferenceable(21) %0) unnamed_addr #3 align 2 {
  %2 = getelementptr inbounds nuw i8, ptr %0, i64 8
  %3 = load ptr, ptr %2, align 8
  %4 = tail call align 8 ptr @llvm.threadlocal.address.p0(ptr align 8 @_ZN12_GLOBAL__N_121IsRecoveringFromCrashE)
  %5 = load ptr, ptr %4, align 8
  store ptr %0, ptr %4, align 8
  %.not11 = icmp eq ptr %3, null
  br i1 %.not11, label %._crit_edge, label %.lr.ph

.lr.ph:                                           ; preds = %1, %.lr.ph
  %.012 = phi ptr [ %7, %.lr.ph ], [ %3, %1 ]
  %6 = getelementptr inbounds nuw i8, ptr %.012, i64 32
  %7 = load ptr, ptr %6, align 8
  %8 = getelementptr inbounds nuw i8, ptr %.012, i64 16
  store i8 1, ptr %8, align 8
  %9 = load ptr, ptr %.012, align 8
  %10 = getelementptr inbounds i8, ptr %9, i64 16
  %11 = load ptr, ptr %10, align 8
  tail call void %11(ptr noundef nonnull align 8 dereferenceable(40) %.012) #19
  %12 = load ptr, ptr %.012, align 8
  %13 = getelementptr inbounds i8, ptr %12, i64 8
  %14 = load ptr, ptr %13, align 8
  tail call void %14(ptr noundef nonnull align 8 dereferenceable(40) %.012) #19
  %.not = icmp eq ptr %7, null
  br i1 %.not, label %._crit_edge, label %.lr.ph, !llvm.loop !4

._crit_edge:                                      ; preds = %.lr.ph, %1
  store ptr %5, ptr %4, align 8
  %15 = load ptr, ptr %0, align 8
  %16 = icmp eq ptr %15, null
  br i1 %16, label %22, label %17

17:                                               ; preds = %._crit_edge
  %18 = getelementptr i8, ptr %15, i64 216
  %.val10 = load i8, ptr %18, align 8
  %19 = and i8 %.val10, 2
  %.not.i = icmp eq i8 %19, 0
  br i1 %.not.i, label %20, label %_ZN12_GLOBAL__N_124CrashRecoveryContextImplD2Ev.exit

20:                                               ; preds = %17
  %.val = load ptr, ptr %15, align 8
  %21 = tail call align 8 ptr @llvm.threadlocal.address.p0(ptr align 8 @_ZN12_GLOBAL__N_114CurrentContextE)
  store ptr %.val, ptr %21, align 8
  br label %_ZN12_GLOBAL__N_124CrashRecoveryContextImplD2Ev.exit

_ZN12_GLOBAL__N_124CrashRecoveryContextImplD2Ev.exit: ; preds = %17, %20
  tail call void @_ZdlPvm(ptr noundef nonnull %15, i64 noundef 224) #20
  br label %22

22:                                               ; preds = %_ZN12_GLOBAL__N_124CrashRecoveryContextImplD2Ev.exit, %._crit_edge
  ret void
}